; Function Attrs: nounwind uwtable
define internal fastcc i32 @enum_endpoint(i32 noundef range(i32 1, 0) %0, i32 noundef range(i32 -1, 2) %1) unnamed_addr #0 {
  %3 = alloca %struct.ScanKeyData, align 8
  call void @llvm.lifetime.start.p0(i64 72, ptr nonnull %3) #8
  %4 = zext i32 %0 to i64
  call void @ScanKeyInit(ptr noundef nonnull %3, i16 noundef signext 2, i16 noundef zeroext 3, i32 noundef 184, i64 noundef %4) #8
  %5 = call ptr @table_open(i32 noundef 3501, i32 noundef 1) #8
  %6 = call ptr @index_open(i32 noundef 3534, i32 noundef 1) #8
  %7 = call ptr @systable_beginscan_ordered(ptr noundef %5, ptr noundef %6, ptr noundef null, i32 noundef 1, ptr noundef nonnull %3) #8
  %8 = call ptr @systable_getnext_ordered(ptr noundef %7, i32 noundef %1) #8
  %.not = icmp eq ptr %8, null
  br i1 %.not, label %16, label %9

9:                                                ; preds = %2
  %10 = getelementptr i8, ptr %8, i64 16
  %.val12 = load ptr, ptr %10, align 8
  call fastcc void @check_safe_enum_use(ptr %.val12)
  %.val = load ptr, ptr %10, align 8
  %11 = getelementptr inbounds nuw i8, ptr %.val, i64 22
  %12 = load i8, ptr %11, align 2
  %13 = zext i8 %12 to i64
  %14 = getelementptr inbounds nuw i8, ptr %.val, i64 %13
  %15 = load i32, ptr %14, align 4
  br label %16

16:                                               ; preds = %2, %9
  %.0 = phi i32 [ %15, %9 ], [ 0, %2 ]
  call void @systable_endscan_ordered(ptr noundef %7) #8
  call void @index_close(ptr noundef %6, i32 noundef 1) #8
  call void @table_close(ptr noundef %5, i32 noundef 1) #8
  call void @llvm.lifetime.end.p0(i64 72, ptr nonnull %3) #8
  ret i32 %.0
}